; Function Attrs: mustprogress nofree norecurse nosync nounwind memory(readwrite, inaccessiblemem: none) uwtable
define hidden void @_ZN3sat12local_search17init_cur_solutionEv(ptr noundef nonnull align 8 captures(none) dereferenceable(232) %0) local_unnamed_addr #7 align 2 {
  %2 = getelementptr inbounds nuw i8, ptr %0, i64 40
  %3 = load ptr, ptr %2, align 8, !tbaa !49
  %4 = icmp eq ptr %3, null
  br i1 %4, label %._crit_edge, label %_ZN6vectorIN3sat12local_search8var_infoELb1EjE3endEv.exit

_ZN6vectorIN3sat12local_search8var_infoELb1EjE3endEv.exit: ; preds = %1
  %5 = getelementptr inbounds i8, ptr %3, i64 -4
  %6 = load i32, ptr %5, align 4, !tbaa !13
  %7 = zext i32 %6 to i64
  %8 = getelementptr inbounds nuw %"struct.sat::local_search::var_info", ptr %3, i64 %7
  %.not11 = icmp eq i32 %6, 0
  br i1 %.not11, label %._crit_edge, label %.lr.ph

.lr.ph:                                           ; preds = %_ZN6vectorIN3sat12local_search8var_infoELb1EjE3endEv.exit
  %9 = getelementptr inbounds nuw i8, ptr %0, i64 28
  %10 = load i8, ptr %9, align 4, !range !7
  %.fr13 = freeze i8 %10
  %11 = trunc i8 %.fr13 to i1
  %12 = getelementptr inbounds nuw i8, ptr %0, i64 208
  %.promoted = load i32, ptr %12, align 8
  br i1 %11, label %.lr.ph.split.us, label %.lr.ph.split

.lr.ph.split.us:                                  ; preds = %.lr.ph, %27
  %13 = phi i32 [ %28, %27 ], [ %.promoted, %.lr.ph ]
  %.012.us = phi ptr [ %29, %27 ], [ %3, %.lr.ph ]
  %14 = getelementptr inbounds nuw i8, ptr %.012.us, i64 8
  %15 = load i8, ptr %14, align 8, !tbaa !50, !range !7, !noundef !8
  %16 = trunc nuw i8 %15 to i1
  br i1 %16, label %27, label %17

17:                                               ; preds = %.lr.ph.split.us
  %18 = mul i32 %13, 214013
  %19 = add i32 %18, 2531011
  store i32 %19, ptr %12, align 8, !tbaa !71
  %20 = lshr i32 %19, 16
  %21 = trunc nuw i32 %20 to i16
  %.lhs.trunc.us = and i16 %21, 32767
  %22 = urem i16 %.lhs.trunc.us, 100
  %.zext.us = zext nneg i16 %22 to i32
  %23 = getelementptr inbounds nuw i8, ptr %.012.us, i64 4
  %24 = load i32, ptr %23, align 4, !tbaa !56
  %25 = icmp ugt i32 %24, %.zext.us
  %26 = zext i1 %25 to i8
  store i8 %26, ptr %.012.us, align 8, !tbaa !54
  br label %27

27:                                               ; preds = %17, %.lr.ph.split.us
  %28 = phi i32 [ %19, %17 ], [ %13, %.lr.ph.split.us ]
  %29 = getelementptr inbounds nuw i8, ptr %.012.us, i64 120
  %.not.us = icmp eq ptr %29, %8
  br i1 %.not.us, label %._crit_edge, label %.lr.ph.split.us

._crit_edge:                                      ; preds = %41, %27, %1, %_ZN6vectorIN3sat12local_search8var_infoELb1EjE3endEv.exit
  ret void

.lr.ph.split:                                     ; preds = %.lr.ph, %41
  %30 = phi i32 [ %42, %41 ], [ %.promoted, %.lr.ph ]
  %.012 = phi ptr [ %43, %41 ], [ %3, %.lr.ph ]
  %31 = getelementptr inbounds nuw i8, ptr %.012, i64 8
  %32 = load i8, ptr %31, align 8, !tbaa !50, !range !7, !noundef !8
  %33 = trunc nuw i8 %32 to i1
  br i1 %33, label %41, label %34

34:                                               ; preds = %.lr.ph.split
  %35 = mul i32 %30, 214013
  %36 = add i32 %35, 2531011
  store i32 %36, ptr %12, align 8, !tbaa !71
  %37 = lshr i32 %36, 16
  %38 = trunc i32 %37 to i8
  %39 = and i8 %38, 1
  %40 = xor i8 %39, 1
  store i8 %40, ptr %.012, align 8, !tbaa !54
  br label %41

41:                                               ; preds = %34, %.lr.ph.split
  %42 = phi i32 [ %36, %34 ], [ %30, %.lr.ph.split ]
  %43 = getelementptr inbounds nuw i8, ptr %.012, i64 120
  %.not = icmp eq ptr %43, %8
  br i1 %.not, label %._crit_edge, label %.lr.ph.split
}